; Function Attrs: mustprogress null_pointer_is_valid sspstrong uwtable
define noundef i32 @_ZNK12ProfileModel23findByNameAndVisibilityE7QStringbb(ptr noundef readonly align 8 captures(none) dereferenceable_or_null(104) %0, ptr noundef readonly captures(none) %1, i1 noundef zeroext %2, i1 noundef zeroext %3) local_unnamed_addr #0 align 2 personality ptr @__gxx_personality_v0 {
  %5 = alloca %class.QList.9, align 8
  %6 = alloca %class.QString, align 8
  call void @llvm.lifetime.start.p0(i64 24, ptr nonnull %5) #26
  %7 = load ptr, ptr %1, align 8
  store ptr %7, ptr %6, align 8
  %8 = getelementptr inbounds nuw i8, ptr %6, i64 8
  %9 = getelementptr inbounds nuw i8, ptr %1, i64 8
  %10 = load ptr, ptr %9, align 8
  store ptr %10, ptr %8, align 8
  %11 = getelementptr inbounds nuw i8, ptr %6, i64 16
  %12 = getelementptr inbounds nuw i8, ptr %1, i64 16
  %13 = load i64, ptr %12, align 8
  store i64 %13, ptr %11, align 8
  %.not.i.i.i = icmp eq ptr %7, null
  br i1 %.not.i.i.i, label %_ZN7QStringC2ERKS_.exit, label %14

14:                                               ; preds = %4
  %15 = atomicrmw add ptr %7, i32 1 seq_cst, align 4
  br label %_ZN7QStringC2ERKS_.exit

_ZN7QStringC2ERKS_.exit:                          ; preds = %4, %14
  invoke void @_ZNK12ProfileModel26findAllByNameAndVisibilityE7QStringbb(ptr dead_on_unwind nonnull writable sret(%class.QList.9) align 8 %5, ptr noundef align 8 dereferenceable_or_null(104) %0, ptr noundef nonnull %6, i1 noundef zeroext %2, i1 noundef zeroext %3)
          to label %16 unwind label %34

16:                                               ; preds = %_ZN7QStringC2ERKS_.exit
  %17 = load ptr, ptr %6, align 8
  %.not.i.i.i4 = icmp eq ptr %17, null
  br i1 %.not.i.i.i4, label %_ZN7QStringD2Ev.exit, label %_ZN17QArrayDataPointerIDsE5derefEv.exit.i.i

_ZN17QArrayDataPointerIDsE5derefEv.exit.i.i:      ; preds = %16
  %18 = atomicrmw sub ptr %17, i32 1 seq_cst, align 4
  %.not.i.i = icmp eq i32 %18, 1
  br i1 %.not.i.i, label %19, label %_ZN7QStringD2Ev.exit

19:                                               ; preds = %_ZN17QArrayDataPointerIDsE5derefEv.exit.i.i
  %20 = load ptr, ptr %6, align 8
  call void @_ZN10QArrayData10deallocateEPS_xx(ptr noundef %20, i64 noundef 2, i64 noundef 8) #26
  br label %_ZN7QStringD2Ev.exit

_ZN7QStringD2Ev.exit:                             ; preds = %16, %_ZN17QArrayDataPointerIDsE5derefEv.exit.i.i, %19
  %21 = getelementptr inbounds nuw i8, ptr %5, i64 16
  %22 = load i64, ptr %21, align 8
  %23 = icmp eq i64 %22, 0
  br i1 %23, label %28, label %24

24:                                               ; preds = %_ZN7QStringD2Ev.exit
  %25 = getelementptr inbounds nuw i8, ptr %5, i64 8
  %26 = load ptr, ptr %25, align 8
  %27 = load i32, ptr %26, align 4
  br label %28

28:                                               ; preds = %_ZN7QStringD2Ev.exit, %24
  %29 = phi i32 [ %27, %24 ], [ -1, %_ZN7QStringD2Ev.exit ]
  %30 = load ptr, ptr %5, align 8
  %.not.i.i.i5 = icmp eq ptr %30, null
  br i1 %.not.i.i.i5, label %_ZN5QListIiED2Ev.exit, label %_ZN17QArrayDataPointerIiE5derefEv.exit.i.i

_ZN17QArrayDataPointerIiE5derefEv.exit.i.i:       ; preds = %28
  %31 = atomicrmw sub ptr %30, i32 1 seq_cst, align 4
  %.not.i.i6 = icmp eq i32 %31, 1
  br i1 %.not.i.i6, label %32, label %_ZN5QListIiED2Ev.exit

32:                                               ; preds = %_ZN17QArrayDataPointerIiE5derefEv.exit.i.i
  %33 = load ptr, ptr %5, align 8
  call void @_ZN10QArrayData10deallocateEPS_xx(ptr noundef %33, i64 noundef 4, i64 noundef 8) #26
  br label %_ZN5QListIiED2Ev.exit

_ZN5QListIiED2Ev.exit:                            ; preds = %28, %_ZN17QArrayDataPointerIiE5derefEv.exit.i.i, %32
  call void @llvm.lifetime.end.p0(i64 24, ptr nonnull %5) #26
  ret i32 %29

34:                                               ; preds = %_ZN7QStringC2ERKS_.exit
  %35 = landingpad { ptr, i32 }
          cleanup
  %36 = load ptr, ptr %6, align 8
  %.not.i.i.i7 = icmp eq ptr %36, null
  br i1 %.not.i.i.i7, label %_ZN7QStringD2Ev.exit10, label %_ZN17QArrayDataPointerIDsE5derefEv.exit.i.i8

_ZN17QArrayDataPointerIDsE5derefEv.exit.i.i8:     ; preds = %34
  %37 = atomicrmw sub ptr %36, i32 1 seq_cst, align 4
  %.not.i.i9 = icmp eq i32 %37, 1
  br i1 %.not.i.i9, label %38, label %_ZN7QStringD2Ev.exit10

38:                                               ; preds = %_ZN17QArrayDataPointerIDsE5derefEv.exit.i.i8
  %39 = load ptr, ptr %6, align 8
  call void @_ZN10QArrayData10deallocateEPS_xx(ptr noundef %39, i64 noundef 2, i64 noundef 8) #26
  br label %_ZN7QStringD2Ev.exit10

_ZN7QStringD2Ev.exit10:                           ; preds = %34, %_ZN17QArrayDataPointerIDsE5derefEv.exit.i.i8, %38
  call void @llvm.lifetime.end.p0(i64 24, ptr nonnull %5) #26
  resume { ptr, i32 } %35
}